; Function Attrs: inlinehint nounwind uwtable
define internal fastcc noalias nonnull ptr @lean_alloc_ctor(i32 noundef range(i32 0, 2) %0, i32 noundef range(i32 1, 5) %1) unnamed_addr #2 {
  %3 = shl nuw nsw i32 %1, 3
  %narrow = add nuw nsw i32 %3, 8
  %4 = and i32 %narrow, 56
  %5 = zext nneg i32 %4 to i64
  tail call void @lean_inc_heartbeat() #5
  %6 = tail call noalias ptr @mi_malloc_small(i64 noundef %5) #5
  %7 = icmp eq ptr %6, null
  br i1 %7, label %8, label %lean_alloc_small_object.exit.i

8:                                                ; preds = %2
  tail call void @lean_internal_panic_out_of_memory() #6
  unreachable

lean_alloc_small_object.exit.i:                   ; preds = %2
  %9 = getelementptr inbounds nuw i8, ptr %6, i64 4
  store i32 1, ptr %6, align 4, !tbaa !8
  %10 = shl nuw nsw i32 %0, 24
  %11 = shl nuw nsw i32 %1, 16
  %12 = or disjoint i32 %10, %11
  %13 = or disjoint i32 %12, %4
  store i32 %13, ptr %9, align 4
  ret ptr %6
}